; Function Attrs: nounwind uwtable
define nonnull ptr @l_Lean_ParseImports_isIdRestCold___boxed(ptr noundef %0) local_unnamed_addr #0 {
  %2 = ptrtoint ptr %0 to i64
  %3 = lshr i64 %2, 1
  %4 = trunc i64 %3 to i32
  %5 = and i64 %2, 1
  %.not = icmp eq i64 %5, 0
  br i1 %.not, label %6, label %lean_dec.exit

6:                                                ; preds = %1
  %7 = load i32, ptr %0, align 4, !tbaa !4
  %8 = icmp sgt i32 %7, 1
  br i1 %8, label %9, label %11, !prof !9

9:                                                ; preds = %6
  %10 = add nsw i32 %7, -1
  store i32 %10, ptr %0, align 4, !tbaa !4
  br label %lean_dec.exit

11:                                               ; preds = %6
  %.not.i = icmp eq i32 %7, 0
  br i1 %.not.i, label %lean_dec.exit, label %12

12:                                               ; preds = %11
  tail call void @lean_dec_ref_cold(ptr noundef nonnull %0) #6
  br label %lean_dec.exit

lean_dec.exit:                                    ; preds = %12, %11, %9, %1
  switch i32 %4, label %13 [
    i32 95, label %l_Lean_ParseImports_isIdRestCold.exit
    i32 39, label %l_Lean_ParseImports_isIdRestCold.exit
    i32 33, label %l_Lean_ParseImports_isIdRestCold.exit
    i32 63, label %l_Lean_ParseImports_isIdRestCold.exit
  ]

13:                                               ; preds = %lean_dec.exit
  %14 = tail call zeroext i8 @l_Lean_isLetterLike(i32 noundef %4) #6
  %15 = icmp eq i8 %14, 0
  br i1 %15, label %16, label %l_Lean_ParseImports_isIdRestCold.exit

16:                                               ; preds = %13
  %17 = tail call zeroext i8 @l_Lean_isSubScriptAlnum(i32 noundef %4) #6
  %18 = zext i8 %17 to i64
  %19 = shl nuw nsw i64 %18, 1
  %20 = or disjoint i64 %19, 1
  br label %l_Lean_ParseImports_isIdRestCold.exit

l_Lean_ParseImports_isIdRestCold.exit:            ; preds = %lean_dec.exit, %lean_dec.exit, %lean_dec.exit, %lean_dec.exit, %13, %16
  %.4.i = phi i64 [ %20, %16 ], [ 3, %13 ], [ 3, %lean_dec.exit ], [ 3, %lean_dec.exit ], [ 3, %lean_dec.exit ], [ 3, %lean_dec.exit ]
  %21 = inttoptr i64 %.4.i to ptr
  ret ptr %21
}